target datalayout = "e-m:e-p270:32:32-p271:32:32-p272:64:64-i64:64-i128:128-f80:128-n8:16:32:64-S128"
target triple = "x86_64-pc-linux-gnu"

%struct.png_image = type { ptr, i32, i32, i32, i32, i32, i32, i32, [64 x i8] }

; Function Attrs: nounwind uwtable
define i32 @png_image_error(ptr noundef %0, ptr noundef %1) #0 {
  %3 = alloca ptr, align 8
  %4 = alloca ptr, align 8
  store ptr %0, ptr %3, align 8
  store ptr %1, ptr %4, align 8
  %5 = load ptr, ptr %3, align 8
  %6 = getelementptr inbounds %struct.png_image, ptr %5, i32 0, i32 8
  %7 = getelementptr inbounds [64 x i8], ptr %6, i64 0, i64 0
  %8 = load ptr, ptr %4, align 8
  %9 = call i64 @png_safecat(ptr noundef %7, i64 noundef 64, i64 noundef 0, ptr noundef %8)
  %10 = load ptr, ptr %3, align 8
  %11 = getelementptr inbounds %struct.png_image, ptr %10, i32 0, i32 7
  %12 = load i32, ptr %11, align 8
  %13 = or i32 %12, 2
  store i32 %13, ptr %11, align 8
  %14 = load ptr, ptr %3, align 8
  call void @png_image_free(ptr noundef %14)
  ret i32 0
}