; Function Attrs: nounwind uwtable
define noundef i32 @png_image_error(ptr noundef %0, ptr noundef %1) local_unnamed_addr #0 {
  %3 = getelementptr inbounds i8, ptr %0, i64 36
  %4 = tail call i64 @png_safecat(ptr noundef nonnull %3, i64 noundef 64, i64 noundef 0, ptr noundef %1) #29
  %5 = getelementptr inbounds i8, ptr %0, i64 32
  %6 = load i32, ptr %5, align 8
  %7 = or i32 %6, 2
  store i32 %7, ptr %5, align 8
  tail call void @png_image_free(ptr noundef %0)
  ret i32 0
}